; Function Attrs: mustprogress nofree norecurse nosync nounwind willreturn memory(read, inaccessiblemem: none) uwtable
define noundef i64 @_ZNK6casadi10Integrator9next_stopExPKd(ptr nocapture noundef nonnull readonly align 8 dereferenceable(1905) %0, i64 noundef %1, ptr noundef readonly %2) local_unnamed_addr #8 align 2 {
  %4 = getelementptr inbounds i8, ptr %0, i64 1744
  %5 = load i64, ptr %4, align 8
  %6 = icmp eq i64 %5, 0
  %7 = icmp eq ptr %2, null
  %or.cond = or i1 %7, %6
  %8 = getelementptr inbounds i8, ptr %0, i64 1552
  %9 = getelementptr inbounds i8, ptr %0, i64 1560
  %10 = load ptr, ptr %9, align 8
  %11 = load ptr, ptr %8, align 8
  %12 = ptrtoint ptr %10 to i64
  %13 = ptrtoint ptr %11 to i64
  %14 = sub i64 %12, %13
  %15 = ashr exact i64 %14, 3
  br i1 %or.cond, label %31, label %.preheader

.preheader:                                       ; preds = %3
  %16 = add nsw i64 %1, 1
  %17 = icmp slt i64 %16, %15
  br i1 %17, label %.lr.ph26, label %.loopexit20

.lr.ph26:                                         ; preds = %.preheader
  %18 = icmp sgt i64 %5, 0
  %19 = add nsw i64 %15, -1
  br i1 %18, label %.lr.ph.us, label %.loopexit20

.lr.ph.us:                                        ; preds = %.lr.ph26, %..loopexit_crit_edge.us
  %20 = phi i64 [ %30, %..loopexit_crit_edge.us ], [ %16, %.lr.ph26 ]
  %.01625.us = phi ptr [ %21, %..loopexit_crit_edge.us ], [ %2, %.lr.ph26 ]
  %.01724.us = phi i64 [ %20, %..loopexit_crit_edge.us ], [ %1, %.lr.ph26 ]
  %21 = getelementptr inbounds double, ptr %.01625.us, i64 %5
  br label %24

22:                                               ; preds = %24
  %23 = add nuw nsw i64 %.023.us, 1
  %exitcond.not = icmp eq i64 %23, %5
  br i1 %exitcond.not, label %..loopexit_crit_edge.us, label %24, !llvm.loop !61

24:                                               ; preds = %.lr.ph.us, %22
  %.023.us = phi i64 [ 0, %.lr.ph.us ], [ %23, %22 ]
  %25 = getelementptr inbounds double, ptr %.01625.us, i64 %.023.us
  %26 = load double, ptr %25, align 8
  %27 = getelementptr inbounds double, ptr %21, i64 %.023.us
  %28 = load double, ptr %27, align 8
  %29 = fcmp une double %26, %28
  br i1 %29, label %.loopexit20, label %22

..loopexit_crit_edge.us:                          ; preds = %22
  %30 = add i64 %20, 1
  %exitcond32.not = icmp eq i64 %30, %15
  br i1 %exitcond32.not, label %.loopexit20, label %.lr.ph.us, !llvm.loop !62

31:                                               ; preds = %3
  %32 = add nsw i64 %15, -1
  br label %.loopexit20

.loopexit20:                                      ; preds = %..loopexit_crit_edge.us, %24, %.lr.ph26, %.preheader, %31
  %.015 = phi i64 [ %32, %31 ], [ %1, %.preheader ], [ %19, %.lr.ph26 ], [ %.01724.us, %24 ], [ %19, %..loopexit_crit_edge.us ]
  ret i64 %.015
}